; Function Attrs: mustprogress nofree norecurse nosync nounwind willreturn memory(argmem: readwrite) uwtable
define range(i32 0, 2) i32 @ossl_quic_stream_map_notify_app_read_reset_recv_part(ptr noundef readnone captures(none) %0, ptr noundef captures(none) %1) local_unnamed_addr #5 {
  %3 = getelementptr inbounds nuw i8, ptr %1, i64 256
  %4 = load i64, ptr %3, align 8
  %5 = and i64 %4, 16711680
  %cond = icmp eq i64 %5, 327680
  br i1 %cond, label %6, label %9

6:                                                ; preds = %2
  %7 = and i64 %4, -16711681
  %8 = or disjoint i64 %7, 393216
  store i64 %8, ptr %3, align 8
  br label %9

9:                                                ; preds = %2, %6
  %.0 = phi i32 [ 1, %6 ], [ 0, %2 ]
  ret i32 %.0
}